(dp0
S'systemmanagermanager'
p1
I7
sS'resourcemanager'
p2
I2
sS'datosbvcmanager'
p3
I6
sS'androidresources'
p4
I1
sS'androidmanager'
p5
I5
sS'testactivitymanager'
p6
I4
sS'appcompatresources'
p7
I3
s.